; Function Attrs: mustprogress nounwind uwtable
define hidden noundef nonnull align 8 dereferenceable(73) ptr @_ZN4LIEF15vector_iostream5writeEPKhl(ptr noundef nonnull returned align 8 dereferenceable(73) %0, ptr noundef readonly captures(none) %1, i64 noundef %2) local_unnamed_addr #2 align 2 {
  %4 = getelementptr inbounds nuw i8, ptr %0, i64 24
  %.sroa.0.0.copyload.i = load i64, ptr %4, align 8, !tbaa !29
  %5 = getelementptr inbounds nuw i8, ptr %0, i64 64
  %6 = load ptr, ptr %5, align 8, !tbaa !6
  %7 = getelementptr inbounds nuw i8, ptr %6, i64 8
  %8 = load ptr, ptr %7, align 8, !tbaa !27
  %9 = load ptr, ptr %6, align 8, !tbaa !28
  %10 = ptrtoint ptr %8 to i64
  %11 = ptrtoint ptr %9 to i64
  %12 = sub i64 %10, %11
  %13 = add i64 %.sroa.0.0.copyload.i, %2
  %14 = icmp ult i64 %12, %13
  br i1 %14, label %15, label %16

15:                                               ; preds = %3
  tail call void @_ZNSt6vectorIhSaIhEE6resizeEm(ptr noundef nonnull align 8 dereferenceable(24) %6, i64 noundef %13)
  br label %16

16:                                               ; preds = %15, %3
  %.not.i.i.i.i.i = icmp eq i64 %2, 0
  br i1 %.not.i.i.i.i.i, label %_ZSt4copyIPKhPhET0_T_S4_S3_.exit, label %17

17:                                               ; preds = %16
  %18 = load ptr, ptr %5, align 8, !tbaa !6
  %19 = load ptr, ptr %18, align 8, !tbaa !28
  %20 = getelementptr inbounds nuw i8, ptr %19, i64 %.sroa.0.0.copyload.i
  tail call void @llvm.memmove.p0.p0.i64(ptr align 1 %20, ptr align 1 %1, i64 %2, i1 false)
  br label %_ZSt4copyIPKhPhET0_T_S4_S3_.exit

_ZSt4copyIPKhPhET0_T_S4_S3_.exit:                 ; preds = %16, %17
  %21 = load i64, ptr %4, align 8, !tbaa !31
  %22 = add nsw i64 %21, %2
  store i64 %22, ptr %4, align 8, !tbaa !31
  ret ptr %0
}